; Function Attrs: mustprogress uwtable
define noundef zeroext i1 @_ZN2cv15ImageCollection4Impl10readHeaderEv(ptr noundef nonnull align 8 captures(none) dereferenceable(104) initializes((48, 56)) %0) local_unnamed_addr #4 align 2 {
  %2 = getelementptr inbounds nuw i8, ptr %0, i64 88
  %3 = load ptr, ptr %2, align 8, !tbaa !14
  %4 = load ptr, ptr %3, align 8, !tbaa !25
  %5 = getelementptr inbounds nuw i8, ptr %4, i64 48
  %6 = load ptr, ptr %5, align 8
  %7 = tail call noundef zeroext i1 %6(ptr noundef nonnull align 8 dereferenceable(368) %3)
  %8 = load ptr, ptr %2, align 8, !tbaa !14
  %9 = getelementptr inbounds nuw i8, ptr %8, i64 8
  %10 = load i32, ptr %9, align 8, !tbaa !38
  %11 = getelementptr inbounds nuw i8, ptr %0, i64 48
  store i32 %10, ptr %11, align 8, !tbaa !262
  %12 = getelementptr inbounds nuw i8, ptr %8, i64 12
  %13 = load i32, ptr %12, align 4, !tbaa !76
  %14 = getelementptr inbounds nuw i8, ptr %0, i64 52
  store i32 %13, ptr %14, align 4, !tbaa !263
  ret i1 %7
}